; Function Attrs: mustprogress uwtable
define internal void @_ZN7rocksdb12_GLOBAL__N_125LegacyWritableFileWrapper12PrepareWriteEmmRKNS_9IOOptionsEPNS_14IODebugContextE(ptr noundef nonnull readonly align 8 captures(none) dereferenceable(48) %0, i64 noundef %1, i64 noundef %2, ptr nonnull readnone align 8 captures(none) %3, ptr readnone captures(none) %4) unnamed_addr #4 align 2 {
  %6 = getelementptr inbounds nuw i8, ptr %0, i64 40
  %7 = load ptr, ptr %6, align 8, !tbaa !472
  %8 = load ptr, ptr %7, align 8, !tbaa !18
  %9 = getelementptr inbounds nuw i8, ptr %8, i64 192
  %10 = load ptr, ptr %9, align 8
  tail call void %10(ptr noundef nonnull align 8 dereferenceable(33) %7, i64 noundef %1, i64 noundef %2)
  ret void
}